target datalayout = "e-m:e-p270:32:32-p271:32:32-p272:64:64-i64:64-i128:128-f80:128-n8:16:32:64-S128"
target triple = "x86_64-pc-linux-gnu"

; Function Attrs: nounwind uwtable
define internal void @vertical_compose_fidelityiL0_10bit(ptr noundef %0, ptr noundef %1, i32 noundef %2) #0 {
  %4 = alloca ptr, align 8
  %5 = alloca ptr, align 8
  %6 = alloca i32, align 4
  %7 = alloca i32, align 4
  %8 = alloca ptr, align 8
  %9 = alloca ptr, align 8
  %10 = alloca ptr, align 8
  %11 = alloca ptr, align 8
  %12 = alloca ptr, align 8
  %13 = alloca ptr, align 8
  %14 = alloca ptr, align 8
  %15 = alloca ptr, align 8
  %16 = alloca ptr, align 8
  store ptr %0, ptr %4, align 8, !tbaa !44
  store ptr %1, ptr %5, align 8, !tbaa !69
  store i32 %2, ptr %6, align 4, !tbaa !11
  call void @llvm.lifetime.start.p0(i64 4, ptr %7) #5
  call void @llvm.lifetime.start.p0(i64 8, ptr %8) #5
  %17 = load ptr, ptr %4, align 8, !tbaa !44
  store ptr %17, ptr %8, align 8, !tbaa !91
  call void @llvm.lifetime.start.p0(i64 8, ptr %9) #5
  %18 = load ptr, ptr %5, align 8, !tbaa !69
  %19 = getelementptr inbounds ptr, ptr %18, i64 0
  %20 = load ptr, ptr %19, align 8, !tbaa !44
  store ptr %20, ptr %9, align 8, !tbaa !91
  call void @llvm.lifetime.start.p0(i64 8, ptr %10) #5
  %21 = load ptr, ptr %5, align 8, !tbaa !69
  %22 = getelementptr inbounds ptr, ptr %21, i64 1
  %23 = load ptr, ptr %22, align 8, !tbaa !44
  store ptr %23, ptr %10, align 8, !tbaa !91
  call void @llvm.lifetime.start.p0(i64 8, ptr %11) #5
  %24 = load ptr, ptr %5, align 8, !tbaa !69
  %25 = getelementptr inbounds ptr, ptr %24, i64 2
  %26 = load ptr, ptr %25, align 8, !tbaa !44
  store ptr %26, ptr %11, align 8, !tbaa !91
  call void @llvm.lifetime.start.p0(i64 8, ptr %12) #5
  %27 = load ptr, ptr %5, align 8, !tbaa !69
  %28 = getelementptr inbounds ptr, ptr %27, i64 3
  %29 = load ptr, ptr %28, align 8, !tbaa !44
  store ptr %29, ptr %12, align 8, !tbaa !91
  call void @llvm.lifetime.start.p0(i64 8, ptr %13) #5
  %30 = load ptr, ptr %5, align 8, !tbaa !69
  %31 = getelementptr inbounds ptr, ptr %30, i64 4
  %32 = load ptr, ptr %31, align 8, !tbaa !44
  store ptr %32, ptr %13, align 8, !tbaa !91
  call void @llvm.lifetime.start.p0(i64 8, ptr %14) #5
  %33 = load ptr, ptr %5, align 8, !tbaa !69
  %34 = getelementptr inbounds ptr, ptr %33, i64 5
  %35 = load ptr, ptr %34, align 8, !tbaa !44
  store ptr %35, ptr %14, align 8, !tbaa !91
  call void @llvm.lifetime.start.p0(i64 8, ptr %15) #5
  %36 = load ptr, ptr %5, align 8, !tbaa !69
  %37 = getelementptr inbounds ptr, ptr %36, i64 6
  %38 = load ptr, ptr %37, align 8, !tbaa !44
  store ptr %38, ptr %15, align 8, !tbaa !91
  call void @llvm.lifetime.start.p0(i64 8, ptr %16) #5
  %39 = load ptr, ptr %5, align 8, !tbaa !69
  %40 = getelementptr inbounds ptr, ptr %39, i64 7
  %41 = load ptr, ptr %40, align 8, !tbaa !44
  store ptr %41, ptr %16, align 8, !tbaa !91
  store i32 0, ptr %7, align 4, !tbaa !11
  br label %42

42:                                               ; preds = %110, %3
  %43 = load i32, ptr %7, align 4, !tbaa !11
  %44 = load i32, ptr %6, align 4, !tbaa !11
  %45 = icmp slt i32 %43, %44
  br i1 %45, label %46, label %113

46:                                               ; preds = %42
  %47 = load ptr, ptr %8, align 8, !tbaa !91
  %48 = load i32, ptr %7, align 4, !tbaa !11
  %49 = sext i32 %48 to i64
  %50 = getelementptr inbounds i32, ptr %47, i64 %49
  %51 = load i32, ptr %50, align 4, !tbaa !11
  %52 = load ptr, ptr %9, align 8, !tbaa !91
  %53 = load i32, ptr %7, align 4, !tbaa !11
  %54 = sext i32 %53 to i64
  %55 = getelementptr inbounds i32, ptr %52, i64 %54
  %56 = load i32, ptr %55, align 4, !tbaa !11
  %57 = load ptr, ptr %16, align 8, !tbaa !91
  %58 = load i32, ptr %7, align 4, !tbaa !11
  %59 = sext i32 %58 to i64
  %60 = getelementptr inbounds i32, ptr %57, i64 %59
  %61 = load i32, ptr %60, align 4, !tbaa !11
  %62 = add i32 %56, %61
  %63 = mul i32 -8, %62
  %64 = load ptr, ptr %10, align 8, !tbaa !91
  %65 = load i32, ptr %7, align 4, !tbaa !11
  %66 = sext i32 %65 to i64
  %67 = getelementptr inbounds i32, ptr %64, i64 %66
  %68 = load i32, ptr %67, align 4, !tbaa !11
  %69 = load ptr, ptr %15, align 8, !tbaa !91
  %70 = load i32, ptr %7, align 4, !tbaa !11
  %71 = sext i32 %70 to i64
  %72 = getelementptr inbounds i32, ptr %69, i64 %71
  %73 = load i32, ptr %72, align 4, !tbaa !11
  %74 = add i32 %68, %73
  %75 = mul i32 21, %74
  %76 = add i32 %63, %75
  %77 = load ptr, ptr %11, align 8, !tbaa !91
  %78 = load i32, ptr %7, align 4, !tbaa !11
  %79 = sext i32 %78 to i64
  %80 = getelementptr inbounds i32, ptr %77, i64 %79
  %81 = load i32, ptr %80, align 4, !tbaa !11
  %82 = load ptr, ptr %14, align 8, !tbaa !91
  %83 = load i32, ptr %7, align 4, !tbaa !11
  %84 = sext i32 %83 to i64
  %85 = getelementptr inbounds i32, ptr %82, i64 %84
  %86 = load i32, ptr %85, align 4, !tbaa !11
  %87 = add i32 %81, %86
  %88 = mul i32 46, %87
  %89 = sub i32 %76, %88
  %90 = load ptr, ptr %12, align 8, !tbaa !91
  %91 = load i32, ptr %7, align 4, !tbaa !11
  %92 = sext i32 %91 to i64
  %93 = getelementptr inbounds i32, ptr %90, i64 %92
  %94 = load i32, ptr %93, align 4, !tbaa !11
  %95 = load ptr, ptr %13, align 8, !tbaa !91
  %96 = load i32, ptr %7, align 4, !tbaa !11
  %97 = sext i32 %96 to i64
  %98 = getelementptr inbounds i32, ptr %95, i64 %97
  %99 = load i32, ptr %98, align 4, !tbaa !11
  %100 = add i32 %94, %99
  %101 = mul i32 161, %100
  %102 = add i32 %89, %101
  %103 = add i32 %102, 128
  %104 = ashr i32 %103, 8
  %105 = sub i32 %51, %104
  %106 = load ptr, ptr %8, align 8, !tbaa !91
  %107 = load i32, ptr %7, align 4, !tbaa !11
  %108 = sext i32 %107 to i64
  %109 = getelementptr inbounds i32, ptr %106, i64 %108
  store i32 %105, ptr %109, align 4, !tbaa !11
  br label %110

110:                                              ; preds = %46
  %111 = load i32, ptr %7, align 4, !tbaa !11
  %112 = add nsw i32 %111, 1
  store i32 %112, ptr %7, align 4, !tbaa !11
  br label %42, !llvm.loop !110

113:                                              ; preds = %42
  call void @llvm.lifetime.end.p0(i64 8, ptr %16) #5
  call void @llvm.lifetime.end.p0(i64 8, ptr %15) #5
  call void @llvm.lifetime.end.p0(i64 8, ptr %14) #5
  call void @llvm.lifetime.end.p0(i64 8, ptr %13) #5
  call void @llvm.lifetime.end.p0(i64 8, ptr %12) #5
  call void @llvm.lifetime.end.p0(i64 8, ptr %11) #5
  call void @llvm.lifetime.end.p0(i64 8, ptr %10) #5
  call void @llvm.lifetime.end.p0(i64 8, ptr %9) #5
  call void @llvm.lifetime.end.p0(i64 8, ptr %8) #5
  call void @llvm.lifetime.end.p0(i64 4, ptr %7) #5
  ret void
}